(dp1
S'output'
p2
S"<class 'sqlite3.OperationalError'> no such table: auth_user"
p3
sS'layer'
p4
S'/home/mhasoba/Documents/Code_n_script/web2py/applications/freesymp/controllers/default.py'
p5
sS'code'
p6
S'<code object <module> at 0x7f3c4c72f630, file "/home/mhasoba/Documents/Code_n_script/web2py/applications/freesymp/controllers/default.py", line 12>'
p7
sS'snapshot'
p8
(dp9
S'exception'
p10
(dp11
S'__module__'
p12
S"'sqlite3'"
p13
sS'__getslice__'
p14
S"<method-wrapper '__getslice__' of OperationalError object>"
p15
sS'__str__'
p16
S"<method-wrapper '__str__' of OperationalError object>"
p17
sS'__reduce__'
p18
S'<built-in method __reduce__ of OperationalError object>'
p19
sS'__dict__'
p20
S'{}'
p21
sS'__sizeof__'
p22
S'<built-in method __sizeof__ of OperationalError object>'
p23
sS'__weakref__'
p24
S'None'
p25
sS'message'
p26
S"'no such table: auth_user'"
p27
sS'__init__'
p28
S"<method-wrapper '__init__' of OperationalError object>"
p29
sS'__setattr__'
p30
S"<method-wrapper '__setattr__' of OperationalError object>"
p31
sS'__reduce_ex__'
p32
S'<built-in method __reduce_ex__ of OperationalError object>'
p33
sS'__new__'
p34
S'<built-in method __new__ of type object>'
p35
sS'__format__'
p36
S'<built-in method __format__ of OperationalError object>'
p37
sS'__class__'
p38
S"<class 'sqlite3.OperationalError'>"
p39
sS'__doc__'
p40
S'None'
p41
sS'__getitem__'
p42
S"<method-wrapper '__getitem__' of OperationalError object>"
p43
sS'__setstate__'
p44
S'<built-in method __setstate__ of OperationalError object>'
p45
sS'__getattribute__'
p46
S"<method-wrapper '__getattribute__' of OperationalError object>"
p47
sS'args'
p48
S"('no such table: auth_user',)"
p49
sS'__subclasshook__'
p50
S'<built-in method __subclasshook__ of type object>'
p51
sS'__unicode__'
p52
S'<built-in method __unicode__ of OperationalError object>'
p53
sS'__delattr__'
p54
S"<method-wrapper '__delattr__' of OperationalError object>"
p55
sS'__repr__'
p56
S"<method-wrapper '__repr__' of OperationalError object>"
p57
sS'__hash__'
p58
S"<method-wrapper '__hash__' of OperationalError object>"
p59
ssS'evalue'
p60
S'no such table: auth_user'
p61
sS'request'
p62
cgluon.html
XML_unpickle
p63
(S's\x86f\x00\x00<div><table><tr><td style="font-weight:bold;vertical-align:top;">ajax</td><td style="vertical-align:top;">:</td><td><div>False</div></td></tr><tr><td style="font-weight:bold;vertical-align:top;">application</td><td style="vertical-align:top;">:</td><td><div>freesymp</div></td></tr><tr><td style="font-weight:bold;vertical-align:top;">args</td><td style="vertical-align:top;">:</td><td><div><table><tr><td><div>login</div></td></tr></table></div></td></tr><tr><td style="font-weight:bold;vertical-align:top;">cid</td><td style="vertical-align:top;">:</td><td><div>None</div></td></tr><tr><td style="font-weight:bold;vertical-align:top;">client</td><td style="vertical-align:top;">:</td><td><div>127.0.0.1</div></td></tr><tr><td style="font-weight:bold;vertical-align:top;">controller</td><td style="vertical-align:top;">:</td><td><div>default</div></td></tr><tr><td style="font-weight:bold;vertical-align:top;">cookies</td><td style="vertical-align:top;">:</td><td><div><table><tr><td style="font-weight:bold;vertical-align:top;">session_id_admin</td><td style="vertical-align:top;">:</td><td><div>127.0.0.1-52458e77-c462-4cd3-874c-b047ff69b826<table><tr><td style="font-weight:bold;vertical-align:top;">comment</td><td style="vertical-align:top;">:</td><td><div></div></td></tr><tr><td style="font-weight:bold;vertical-align:top;">domain</td><td style="vertical-align:top;">:</td><td><div></div></td></tr><tr><td style="font-weight:bold;vertical-align:top;">expires</td><td style="vertical-align:top;">:</td><td><div></div></td></tr><tr><td style="font-weight:bold;vertical-align:top;">httponly</td><td style="vertical-align:top;">:</td><td><div></div></td></tr><tr><td style="font-weight:bold;vertical-align:top;">max-age</td><td style="vertical-align:top;">:</td><td><div></div></td></tr><tr><td style="font-weight:bold;vertical-align:top;">path</td><td style="vertical-align:top;">:</td><td><div></div></td></tr><tr><td style="font-weight:bold;vertical-align:top;">secure</td><td style="vertical-align:top;">:</td><td><div></div></td></tr><tr><td style="font-weight:bold;vertical-align:top;">version</td><td style="vertical-align:top;">:</td><td><div></div></td></tr></table></div></td></tr><tr><td style="font-weight:bold;vertical-align:top;">session_id_freesymp</td><td style="vertical-align:top;">:</td><td><div>127.0.0.1-8bf876bd-ad20-458b-8ad5-c64617edca66<table><tr><td style="font-weight:bold;vertical-align:top;">comment</td><td style="vertical-align:top;">:</td><td><div></div></td></tr><tr><td style="font-weight:bold;vertical-align:top;">domain</td><td style="vertical-align:top;">:</td><td><div></div></td></tr><tr><td style="font-weight:bold;vertical-align:top;">expires</td><td style="vertical-align:top;">:</td><td><div></div></td></tr><tr><td style="font-weight:bold;vertical-align:top;">httponly</td><td style="vertical-align:top;">:</td><td><div></div></td></tr><tr><td style="font-weight:bold;vertical-align:top;">max-age</td><td style="vertical-align:top;">:</td><td><div></div></td></tr><tr><td style="font-weight:bold;vertical-align:top;">path</td><td style="vertical-align:top;">:</td><td><div></div></td></tr><tr><td style="font-weight:bold;vertical-align:top;">secure</td><td style="vertical-align:top;">:</td><td><div></div></td></tr><tr><td style="font-weight:bold;vertical-align:top;">version</td><td style="vertical-align:top;">:</td><td><div></div></td></tr></table></div></td></tr><tr><td style="font-weight:bold;vertical-align:top;">session_id_welcome</td><td style="vertical-align:top;">:</td><td><div>127.0.0.1-a9d756b3-18c6-471f-88eb-e31ffb697d4e<table><tr><td style="font-weight:bold;vertical-align:top;">comment</td><td style="vertical-align:top;">:</td><td><div></div></td></tr><tr><td style="font-weight:bold;vertical-align:top;">domain</td><td style="vertical-align:top;">:</td><td><div></div></td></tr><tr><td style="font-weight:bold;vertical-align:top;">expires</td><td style="vertical-align:top;">:</td><td><div></div></td></tr><tr><td style="font-weight:bold;vertical-align:top;">httponly</td><td style="vertical-align:top;">:</td><td><div></div></td></tr><tr><td style="font-weight:bold;vertical-align:top;">max-age</td><td style="vertical-align:top;">:</td><td><div></div></td></tr><tr><td style="font-weight:bold;vertical-align:top;">path</td><td style="vertical-align:top;">:</td><td><div></div></td></tr><tr><td style="font-weight:bold;vertical-align:top;">secure</td><td style="vertical-align:top;">:</td><td><div></div></td></tr><tr><td style="font-weight:bold;vertical-align:top;">version</td><td style="vertical-align:top;">:</td><td><div></div></td></tr></table></div></td></tr></table></div></td></tr><tr><td style="font-weight:bold;vertical-align:top;">env</td><td style="vertical-align:top;">:</td><td><div><table><tr><td style="font-weight:bold;vertical-align:top;">CONTENT_LENGTH</td><td style="vertical-align:top;">:</td><td><div>615</div></td></tr><tr><td style="font-weight:bold;vertical-align:top;">CONTENT_TYPE</td><td style="vertical-align:top;">:</td><td><div>multipart/form-data; boundary=----WebKitFormBoundaryz21w45Ucn2kddyDh</div></td></tr><tr><td style="font-weight:bold;vertical-align:top;">HTTP_ACCEPT</td><td style="vertical-align:top;">:</td><td><div>text/html,application/xhtml+xml,application/xml;q=0.9,image/webp,image/apng,*/*;q=0.8</div></td></tr><tr><td style="font-weight:bold;vertical-align:top;">HTTP_ACCEPT_ENCODING</td><td style="vertical-align:top;">:</td><td><div>gzip, deflate, br</div></td></tr><tr><td style="font-weight:bold;vertical-align:top;">HTTP_ACCEPT_LANGUAGE</td><td style="vertical-align:top;">:</td><td><div>en-US,en;q=0.8,es;q=0.6</div></td></tr><tr><td style="font-weight:bold;vertical-align:top;">HTTP_CACHE_CONTROL</td><td style="vertical-align:top;">:</td><td><div>max-age=0</div></td></tr><tr><td style="font-weight:bold;vertical-align:top;">HTTP_CONNECTION</td><td style="vertical-align:top;">:</td><td><div>keep-alive</div></td></tr><tr><td style="font-weight:bold;vertical-align:top;">HTTP_CONTENT_LENGTH</td><td style="vertical-align:top;">:</td><td><div>615</div></td></tr><tr><td style="font-weight:bold;vertical-align:top;">HTTP_CONTENT_TYPE</td><td style="vertical-align:top;">:</td><td><div>multipart/form-data; boundary=----WebKitFormBoundaryz21w45Ucn2kddyDh</div></td></tr><tr><td style="font-weight:bold;vertical-align:top;">HTTP_COOKIE</td><td style="vertical-align:top;">:</td><td><div>session_id_welcome=127.0.0.1-a9d756b3-18c6-471f-88eb-e31ffb697d4e; session_id_admin=127.0.0.1-52458e77-c462-4cd3-874c-b047ff69b826; session_id_freesymp=127.0.0.1-8bf876bd-ad20-458b-8ad5-c64617edca66</div></td></tr><tr><td style="font-weight:bold;vertical-align:top;">HTTP_HOST</td><td style="vertical-align:top;">:</td><td><div>127.0.0.1:8000</div></td></tr><tr><td style="font-weight:bold;vertical-align:top;">HTTP_ORIGIN</td><td style="vertical-align:top;">:</td><td><div>http://127.0.0.1:8000</div></td></tr><tr><td style="font-weight:bold;vertical-align:top;">HTTP_REFERER</td><td style="vertical-align:top;">:</td><td><div>http://127.0.0.1:8000/freesymp/default/user/login?_next=/freesymp/default/all_records</div></td></tr><tr><td style="font-weight:bold;vertical-align:top;">HTTP_UPGRADE_INSECURE_REQUESTS</td><td style="vertical-align:top;">:</td><td><div>1</div></td></tr><tr><td style="font-weight:bold;vertical-align:top;">HTTP_USER_AGENT</td><td style="vertical-align:top;">:</td><td><div>Mozilla/5.0 (X11; Linux x86_64) AppleWebKit/537.36 (KHTML, like Gecko) Chrome/59.0.3071.115 Safari/537.36</div></td></tr><tr><td style="font-weight:bold;vertical-align:top;">PATH_INFO</td><td style="vertical-align:top;">:</td><td><div>/freesymp/default/user/login</div></td></tr><tr><td style="font-weight:bold;vertical-align:top;">QUERY_STRING</td><td style="vertical-align:top;">:</td><td><div>_next=/freesymp/default/all_records</div></td></tr><tr><td style="font-weight:bold;vertical-align:top;">REMOTE_ADDR</td><td style="vertical-align:top;">:</td><td><div>127.0.0.1</div></td></tr><tr><td style="font-weight:bold;vertical-align:top;">REMOTE_PORT</td><td style="vertical-align:top;">:</td><td><div>47430</div></td></tr><tr><td style="font-weight:bold;vertical-align:top;">REQUEST_METHOD</td><td style="vertical-align:top;">:</td><td><div>POST</div></td></tr><tr><td style="font-weight:bold;vertical-align:top;">SCRIPT_NAME</td><td style="vertical-align:top;">:</td><td><div></div></td></tr><tr><td style="font-weight:bold;vertical-align:top;">SERVER_NAME</td><td style="vertical-align:top;">:</td><td><div>mhasoba-cha-dyesktop</div></td></tr><tr><td style="font-weight:bold;vertical-align:top;">SERVER_PORT</td><td style="vertical-align:top;">:</td><td><div>8000</div></td></tr><tr><td style="font-weight:bold;vertical-align:top;">SERVER_PROTOCOL</td><td style="vertical-align:top;">:</td><td><div>HTTP/1.1</div></td></tr><tr><td style="font-weight:bold;vertical-align:top;">SERVER_SOFTWARE</td><td style="vertical-align:top;">:</td><td><div>Rocket 1.2.6</div></td></tr><tr><td style="font-weight:bold;vertical-align:top;">app_folders</td><td style="vertical-align:top;">:</td><td><div>set([&#x27;/home/mhasoba/Documents/Code_n_script/web2py/applications/welcome/&#x27;, &#x27;/home/mhasoba/Documents/Code_n_script/web2py/applications/admin/&#x27;, &#x27;/home/mhasoba/Documents/Code_n_script/web2py/applications/freesymp/&#x27;])</div></td></tr><tr><td style="font-weight:bold;vertical-align:top;">applications_parent</td><td style="vertical-align:top;">:</td><td><div>/home/mhasoba/Documents/Code_n_script/web2py</div></td></tr><tr><td style="font-weight:bold;vertical-align:top;">cmd_args</td><td style="vertical-align:top;">:</td><td><div><table></table></div></td></tr><tr><td style="font-weight:bold;vertical-align:top;">cmd_options</td><td style="vertical-align:top;">:</td><td><div>&lt;Values at 0x7f3c622faab8: {&#x27;verbose&#x27;: False, &#x27;ip&#x27;: &#x27;127.0.0.1&#x27;, &#x27;debuglevel&#x27;: 30, &#x27;with_scheduler&#x27;: False, &#x27;shutdown_timeout&#x27;: 5, &#x27;taskbar&#x27;: False, &#x27;with_coverage&#x27;: False, &#x27;pid_filename&#x27;: &#x27;httpserver.pid&#x27;, &#x27;maxthreads&#x27;: None, &#x27;softcron&#x27;: False, &#x27;server_name&#x27;: &#x27;mhasoba-cha-dyesktop&#x27;, &#x27;bpython&#x27;: False, &#x27;nogui&#x27;: False, &#x27;port&#x27;: 8000, &#x27;print_errors&#x27;: False, &#x27;extcron&#x27;: False, &#x27;runcron&#x27;: False, &#x27;run_system_tests&#x27;: False, &#x27;test&#x27;: None, &#x27;folder&#x27;: &#x27;/home/mhasoba/Documents/Code_n_script/web2py&#x27;, &#x27;config&#x27;: &#x27;&#x27;, &#x27;minthreads&#x27;: None, &#x27;shell&#x27;: None, &#x27;run&#x27;: &#x27;&#x27;, &#x27;log_filename&#x27;: &#x27;httpserver.log&#x27;, &#x27;profiler_dir&#x27;: None, &#x27;args&#x27;: [&#x27;&#x27;], &#x27;socket_timeout&#x27;: 5, &#x27;ssl_ca_certificate&#x27;: None, &#x27;scheduler&#x27;: None, &#x27;interfaces&#x27;: None, &#x27;ssl_private_key&#x27;: &#x27;&#x27;, &#x27;gae&#x27;: None, &#x27;password&#x27;: &#x27;******&#x27;, &#x27;request_queue_size&#x27;: 5, &#x27;ssl_certificate&#x27;: &#x27;&#x27;, &#x27;cronjob&#x27;: False, &#x27;numthreads&#x27;: None, &#x27;quiet&#x27;: False, &#x27;import_models&#x27;: False, &#x27;timeout&#x27;: 10, &#x27;plain&#x27;: False, &#x27;nobanner&#x27;: False}&gt;</div></td></tr><tr><td style="font-weight:bold;vertical-align:top;">content_length</td><td style="vertical-align:top;">:</td><td><div>615</div></td></tr><tr><td style="font-weight:bold;vertical-align:top;">content_type</td><td style="vertical-align:top;">:</td><td><div>multipart/form-data; boundary=----WebKitFormBoundaryz21w45Ucn2kddyDh</div></td></tr><tr><td style="font-weight:bold;vertical-align:top;">db_sessions</td><td style="vertical-align:top;">:</td><td><div>set([])</div></td></tr><tr><td style="font-weight:bold;vertical-align:top;">debugging</td><td style="vertical-align:top;">:</td><td><div>False</div></td></tr><tr><td style="font-weight:bold;vertical-align:top;">gluon_parent</td><td style="vertical-align:top;">:</td><td><div>/home/mhasoba/Documents/Code_n_script/web2py</div></td></tr><tr><td style="font-weight:bold;vertical-align:top;">http_accept</td><td style="vertical-align:top;">:</td><td><div>text/html,application/xhtml+xml,application/xml;q=0.9,image/webp,image/apng,*/*;q=0.8</div></td></tr><tr><td style="font-weight:bold;vertical-align:top;">http_accept_encoding</td><td style="vertical-align:top;">:</td><td><div>gzip, deflate, br</div></td></tr><tr><td style="font-weight:bold;vertical-align:top;">http_accept_language</td><td style="vertical-align:top;">:</td><td><div>en-US,en;q=0.8,es;q=0.6</div></td></tr><tr><td style="font-weight:bold;vertical-align:top;">http_cache_control</td><td style="vertical-align:top;">:</td><td><div>max-age=0</div></td></tr><tr><td style="font-weight:bold;vertical-align:top;">http_connection</td><td style="vertical-align:top;">:</td><td><div>keep-alive</div></td></tr><tr><td style="font-weight:bold;vertical-align:top;">http_content_length</td><td style="vertical-align:top;">:</td><td><div>615</div></td></tr><tr><td style="font-weight:bold;vertical-align:top;">http_content_type</td><td style="vertical-align:top;">:</td><td><div>multipart/form-data; boundary=----WebKitFormBoundaryz21w45Ucn2kddyDh</div></td></tr><tr><td style="font-weight:bold;vertical-align:top;">http_cookie</td><td style="vertical-align:top;">:</td><td><div>session_id_welcome=127.0.0.1-a9d756b3-18c6-471f-88eb-e31ffb697d4e; session_id_admin=127.0.0.1-52458e77-c462-4cd3-874c-b047ff69b826; session_id_freesymp=127.0.0.1-8bf876bd-ad20-458b-8ad5-c64617edca66</div></td></tr><tr><td style="font-weight:bold;vertical-align:top;">http_host</td><td style="vertical-align:top;">:</td><td><div>127.0.0.1:8000</div></td></tr><tr><td style="font-weight:bold;vertical-align:top;">http_origin</td><td style="vertical-align:top;">:</td><td><div>http://127.0.0.1:8000</div></td></tr><tr><td style="font-weight:bold;vertical-align:top;">http_referer</td><td style="vertical-align:top;">:</td><td><div>http://127.0.0.1:8000/freesymp/default/user/login?_next=/freesymp/default/all_records</div></td></tr><tr><td style="font-weight:bold;vertical-align:top;">http_upgrade_insecure_requests</td><td style="vertical-align:top;">:</td><td><div>1</div></td></tr><tr><td style="font-weight:bold;vertical-align:top;">http_user_agent</td><td style="vertical-align:top;">:</td><td><div>Mozilla/5.0 (X11; Linux x86_64) AppleWebKit/537.36 (KHTML, like Gecko) Chrome/59.0.3071.115 Safari/537.36</div></td></tr><tr><td style="font-weight:bold;vertical-align:top;">is_jython</td><td style="vertical-align:top;">:</td><td><div>False</div></td></tr><tr><td style="font-weight:bold;vertical-align:top;">is_py2</td><td style="vertical-align:top;">:</td><td><div>True</div></td></tr><tr><td style="font-weight:bold;vertical-align:top;">is_pypy</td><td style="vertical-align:top;">:</td><td><div>False</div></td></tr><tr><td style="font-weight:bold;vertical-align:top;">is_source</td><td style="vertical-align:top;">:</td><td><div>True</div></td></tr><tr><td style="font-weight:bold;vertical-align:top;">local_hosts</td><td style="vertical-align:top;">:</td><td><div><table><tr><td><div>::1</div></td></tr><tr><td><div>127.0.1.1</div></td></tr><tr><td><div>mhasoba-cha-dyesktop</div></td></tr><tr><td><div>::ffff:127.0.0.1</div></td></tr><tr><td><div>127.0.0.1</div></td></tr></table></div></td></tr><tr><td style="font-weight:bold;vertical-align:top;">path_info</td><td style="vertical-align:top;">:</td><td><div>/freesymp/default/user/login</div></td></tr><tr><td style="font-weight:bold;vertical-align:top;">query_string</td><td style="vertical-align:top;">:</td><td><div>_next=/freesymp/default/all_records</div></td></tr><tr><td style="font-weight:bold;vertical-align:top;">remote_addr</td><td style="vertical-align:top;">:</td><td><div>127.0.0.1</div></td></tr><tr><td style="font-weight:bold;vertical-align:top;">remote_port</td><td style="vertical-align:top;">:</td><td><div>47430</div></td></tr><tr><td style="font-weight:bold;vertical-align:top;">request_method</td><td style="vertical-align:top;">:</td><td><div>POST</div></td></tr><tr><td style="font-weight:bold;vertical-align:top;">request_uri</td><td style="vertical-align:top;">:</td><td><div>/freesymp/default/user/login?_next=/freesymp/default/all_records</div></td></tr><tr><td style="font-weight:bold;vertical-align:top;">script_name</td><td style="vertical-align:top;">:</td><td><div></div></td></tr><tr><td style="font-weight:bold;vertical-align:top;">server_name</td><td style="vertical-align:top;">:</td><td><div>mhasoba-cha-dyesktop</div></td></tr><tr><td style="font-weight:bold;vertical-align:top;">server_port</td><td style="vertical-align:top;">:</td><td><div>8000</div></td></tr><tr><td style="font-weight:bold;vertical-align:top;">server_protocol</td><td style="vertical-align:top;">:</td><td><div>HTTP/1.1</div></td></tr><tr><td style="font-weight:bold;vertical-align:top;">server_software</td><td style="vertical-align:top;">:</td><td><div>Rocket 1.2.6</div></td></tr><tr><td style="font-weight:bold;vertical-align:top;">web2py_path</td><td style="vertical-align:top;">:</td><td><div>/home/mhasoba/Documents/Code_n_script/web2py</div></td></tr><tr><td style="font-weight:bold;vertical-align:top;">web2py_version</td><td style="vertical-align:top;">:</td><td><div>2.15.3-stable+timestamp.2017.08.07.12.51.45</div></td></tr><tr><td style="font-weight:bold;vertical-align:top;">wsgi.errors</td><td style="vertical-align:top;">:</td><td><div>&lt;open file &#x27;&lt;stderr&gt;&#x27;, mode &#x27;w&#x27; at 0x7f3c66b511e0&gt;</div></td></tr><tr><td style="font-weight:bold;vertical-align:top;">wsgi.file_wrapper</td><td style="vertical-align:top;">:</td><td><div>&lt;class wsgiref.util.FileWrapper at 0x7f3c621ca390&gt;</div></td></tr><tr><td style="font-weight:bold;vertical-align:top;">wsgi.input</td><td style="vertical-align:top;">:</td><td><div>&lt;socket._fileobject object at 0x7f3c4c7e7b50&gt;</div></td></tr><tr><td style="font-weight:bold;vertical-align:top;">wsgi.multiprocess</td><td style="vertical-align:top;">:</td><td><div>False</div></td></tr><tr><td style="font-weight:bold;vertical-align:top;">wsgi.multithread</td><td style="vertical-align:top;">:</td><td><div>True</div></td></tr><tr><td style="font-weight:bold;vertical-align:top;">wsgi.run_once</td><td style="vertical-align:top;">:</td><td><div>False</div></td></tr><tr><td style="font-weight:bold;vertical-align:top;">wsgi.url_scheme</td><td style="vertical-align:top;">:</td><td><div>http</div></td></tr><tr><td style="font-weight:bold;vertical-align:top;">wsgi.version</td><td style="vertical-align:top;">:</td><td><div><table><tr><td><div>1</div></td></tr><tr><td><div>0</div></td></tr></table></div></td></tr><tr><td style="font-weight:bold;vertical-align:top;">wsgi_errors</td><td style="vertical-align:top;">:</td><td><div>&lt;open file &#x27;&lt;stderr&gt;&#x27;, mode &#x27;w&#x27; at 0x7f3c66b511e0&gt;</div></td></tr><tr><td style="font-weight:bold;vertical-align:top;">wsgi_file_wrapper</td><td style="vertical-align:top;">:</td><td><div>&lt;class wsgiref.util.FileWrapper at 0x7f3c621ca390&gt;</div></td></tr><tr><td style="font-weight:bold;vertical-align:top;">wsgi_input</td><td style="vertical-align:top;">:</td><td><div>&lt;socket._fileobject object at 0x7f3c4c7e7b50&gt;</div></td></tr><tr><td style="font-weight:bold;vertical-align:top;">wsgi_multiprocess</td><td style="vertical-align:top;">:</td><td><div>False</div></td></tr><tr><td style="font-weight:bold;vertical-align:top;">wsgi_multithread</td><td style="vertical-align:top;">:</td><td><div>True</div></td></tr><tr><td style="font-weight:bold;vertical-align:top;">wsgi_run_once</td><td style="vertical-align:top;">:</td><td><div>False</div></td></tr><tr><td style="font-weight:bold;vertical-align:top;">wsgi_url_scheme</td><td style="vertical-align:top;">:</td><td><div>http</div></td></tr><tr><td style="font-weight:bold;vertical-align:top;">wsgi_version</td><td style="vertical-align:top;">:</td><td><div><table><tr><td><div>1</div></td></tr><tr><td><div>0</div></td></tr></table></div></td></tr></table></div></td></tr><tr><td style="font-weight:bold;vertical-align:top;">extension</td><td style="vertical-align:top;">:</td><td><div>html</div></td></tr><tr><td style="font-weight:bold;vertical-align:top;">folder</td><td style="vertical-align:top;">:</td><td><div>/home/mhasoba/Documents/Code_n_script/web2py/applications/freesymp/</div></td></tr><tr><td style="font-weight:bold;vertical-align:top;">function</td><td style="vertical-align:top;">:</td><td><div>user</div></td></tr><tr><td style="font-weight:bold;vertical-align:top;">global_settings</td><td style="vertical-align:top;">:</td><td><div><table><tr><td style="font-weight:bold;vertical-align:top;">app_folders</td><td style="vertical-align:top;">:</td><td><div>set([&#x27;/home/mhasoba/Documents/Code_n_script/web2py/applications/welcome/&#x27;, &#x27;/home/mhasoba/Documents/Code_n_script/web2py/applications/admin/&#x27;, &#x27;/home/mhasoba/Documents/Code_n_script/web2py/applications/freesymp/&#x27;])</div></td></tr><tr><td style="font-weight:bold;vertical-align:top;">applications_parent</td><td style="vertical-align:top;">:</td><td><div>/home/mhasoba/Documents/Code_n_script/web2py</div></td></tr><tr><td style="font-weight:bold;vertical-align:top;">cmd_args</td><td style="vertical-align:top;">:</td><td><div><table></table></div></td></tr><tr><td style="font-weight:bold;vertical-align:top;">cmd_options</td><td style="vertical-align:top;">:</td><td><div>&lt;Values at 0x7f3c622faab8: {&#x27;verbose&#x27;: False, &#x27;ip&#x27;: &#x27;127.0.0.1&#x27;, &#x27;debuglevel&#x27;: 30, &#x27;with_scheduler&#x27;: False, &#x27;shutdown_timeout&#x27;: 5, &#x27;taskbar&#x27;: False, &#x27;with_coverage&#x27;: False, &#x27;pid_filename&#x27;: &#x27;httpserver.pid&#x27;, &#x27;maxthreads&#x27;: None, &#x27;softcron&#x27;: False, &#x27;server_name&#x27;: &#x27;mhasoba-cha-dyesktop&#x27;, &#x27;bpython&#x27;: False, &#x27;nogui&#x27;: False, &#x27;port&#x27;: 8000, &#x27;print_errors&#x27;: False, &#x27;extcron&#x27;: False, &#x27;runcron&#x27;: False, &#x27;run_system_tests&#x27;: False, &#x27;test&#x27;: None, &#x27;folder&#x27;: &#x27;/home/mhasoba/Documents/Code_n_script/web2py&#x27;, &#x27;config&#x27;: &#x27;&#x27;, &#x27;minthreads&#x27;: None, &#x27;shell&#x27;: None, &#x27;run&#x27;: &#x27;&#x27;, &#x27;log_filename&#x27;: &#x27;httpserver.log&#x27;, &#x27;profiler_dir&#x27;: None, &#x27;args&#x27;: [&#x27;&#x27;], &#x27;socket_timeout&#x27;: 5, &#x27;ssl_ca_certificate&#x27;: None, &#x27;scheduler&#x27;: None, &#x27;interfaces&#x27;: None, &#x27;ssl_private_key&#x27;: &#x27;&#x27;, &#x27;gae&#x27;: None, &#x27;password&#x27;: &#x27;******&#x27;, &#x27;request_queue_size&#x27;: 5, &#x27;ssl_certificate&#x27;: &#x27;&#x27;, &#x27;cronjob&#x27;: False, &#x27;numthreads&#x27;: None, &#x27;quiet&#x27;: False, &#x27;import_models&#x27;: False, &#x27;timeout&#x27;: 10, &#x27;plain&#x27;: False, &#x27;nobanner&#x27;: False}&gt;</div></td></tr><tr><td style="font-weight:bold;vertical-align:top;">db_sessions</td><td style="vertical-align:top;">:</td><td><div>set([])</div></td></tr><tr><td style="font-weight:bold;vertical-align:top;">debugging</td><td style="vertical-align:top;">:</td><td><div>False</div></td></tr><tr><td style="font-weight:bold;vertical-align:top;">gluon_parent</td><td style="vertical-align:top;">:</td><td><div>/home/mhasoba/Documents/Code_n_script/web2py</div></td></tr><tr><td style="font-weight:bold;vertical-align:top;">is_jython</td><td style="vertical-align:top;">:</td><td><div>False</div></td></tr><tr><td style="font-weight:bold;vertical-align:top;">is_py2</td><td style="vertical-align:top;">:</td><td><div>True</div></td></tr><tr><td style="font-weight:bold;vertical-align:top;">is_pypy</td><td style="vertical-align:top;">:</td><td><div>False</div></td></tr><tr><td style="font-weight:bold;vertical-align:top;">is_source</td><td style="vertical-align:top;">:</td><td><div>True</div></td></tr><tr><td style="font-weight:bold;vertical-align:top;">local_hosts</td><td style="vertical-align:top;">:</td><td><div><table><tr><td><div>::1</div></td></tr><tr><td><div>127.0.1.1</div></td></tr><tr><td><div>mhasoba-cha-dyesktop</div></td></tr><tr><td><div>::ffff:127.0.0.1</div></td></tr><tr><td><div>127.0.0.1</div></td></tr></table></div></td></tr><tr><td style="font-weight:bold;vertical-align:top;">web2py_version</td><td style="vertical-align:top;">:</td><td><div>2.15.3-stable+timestamp.2017.08.07.12.51.45</div></td></tr></table></div></td></tr><tr><td style="font-weight:bold;vertical-align:top;">is_https</td><td style="vertical-align:top;">:</td><td><div>False</div></td></tr><tr><td style="font-weight:bold;vertical-align:top;">is_local</td><td style="vertical-align:top;">:</td><td><div>True</div></td></tr><tr><td style="font-weight:bold;vertical-align:top;">is_restful</td><td style="vertical-align:top;">:</td><td><div>False</div></td></tr><tr><td style="font-weight:bold;vertical-align:top;">is_scheduler</td><td style="vertical-align:top;">:</td><td><div>False</div></td></tr><tr><td style="font-weight:bold;vertical-align:top;">is_shell</td><td style="vertical-align:top;">:</td><td><div>False</div></td></tr><tr><td style="font-weight:bold;vertical-align:top;">now</td><td style="vertical-align:top;">:</td><td><div>datetime.datetime(2017, 8, 29, 17, 27, 26, 191980)</div></td></tr><tr><td style="font-weight:bold;vertical-align:top;">raw_args</td><td style="vertical-align:top;">:</td><td><div>login</div></td></tr><tr><td style="font-weight:bold;vertical-align:top;">raw_extension</td><td style="vertical-align:top;">:</td><td><div>None</div></td></tr><tr><td style="font-weight:bold;vertical-align:top;">url</td><td style="vertical-align:top;">:</td><td><div>/freesymp/default/user/login</div></td></tr><tr><td style="font-weight:bold;vertical-align:top;">utcnow</td><td style="vertical-align:top;">:</td><td><div>datetime.datetime(2017, 8, 29, 16, 27, 26, 191994)</div></td></tr><tr><td style="font-weight:bold;vertical-align:top;">wsgi</td><td style="vertical-align:top;">:</td><td><div>&lt;gluon.main.LazyWSGI object at 0x7f3c4c7ea7d0&gt;</div></td></tr></table></div>'
tRp64
sS'frames'
p65
(lp66
(dp67
S'file'
p68
S'/home/mhasoba/Documents/Code_n_script/web2py/gluon/restricted.py'
p69
sS'dump'
p70
(dp71
S'environment'
p72
S"{'A': <class 'gluon.html.A'>, 'ANY_OF': <class 'gluon.validators.ANY_OF'>, 'ASSIGNJS': <function ASSIGNJS>, 'AppConfig': <function AppConfig>, 'Auth': <class 'gluon.tools.Auth'>, 'B': <class 'gluon.html.B'>, 'BEAUTIFY': <class 'gluon.html.BEAUTIFY'>, 'BODY': <class 'gluon.html.BODY'>, 'BR': <class 'gluon.html.BR'>, 'BUTTON': <class 'gluon.html.BUTTON'>, ...}"
p73
sS'ccode'
p74
S'<code object <module> at 0x7f3c4c72f630, file "/...ations/freesymp/controllers/default.py", line 12>'
p75
ssS'lnum'
p76
I219
sS'lines'
p77
(dp78
I214
S'    if environment is None:'
p79
sI215
S'        environment = {}'
p80
sI216
S"    environment['__file__'] = layer"
p81
sI217
S"    environment['__name__'] = '__restricted__'"
p82
sI218
S'    try:'
p83
sI219
S'        exec(ccode, environment)'
p84
sI220
S'    except HTTP:'
p85
sI221
S'        raise'
p86
sI222
S'    except RestrictedError:'
p87
sI223
S'        # do not encapsulate (obfuscate) the original RestrictedError'
p88
ssS'call'
p89
S'(ccode=<code object <module> at 0x7f3c4c72f630, file "/...ations/freesymp/controllers/default.py", line 12>, environment={\'A\': <class \'gluon.html.A\'>, \'ANY_OF\': <class \'gluon.validators.ANY_OF\'>, \'ASSIGNJS\': <function ASSIGNJS>, \'AppConfig\': <function AppConfig>, \'Auth\': <class \'gluon.tools.Auth\'>, \'B\': <class \'gluon.html.B\'>, \'BEAUTIFY\': <class \'gluon.html.BEAUTIFY\'>, \'BODY\': <class \'gluon.html.BODY\'>, \'BR\': <class \'gluon.html.BR\'>, \'BUTTON\': <class \'gluon.html.BUTTON\'>, ...}, layer=\'/home/mhasoba/Documents/Code_n_script/web2py/applications/freesymp/controllers/default.py\')'
p90
sS'func'
p91
S'restricted'
p92
sa(dp93
g68
S'/home/mhasoba/Documents/Code_n_script/web2py/applications/freesymp/controllers/default.py'
p94
sg70
(dp95
sg76
I107
sg77
(dp96
I96
S'     return dict(form=grid)'
p97
sI97
S''
sI98
S'def activities():'
p98
sI99
S'    return locals()'
p99
sI100
S''
sI101
S'def program():'
p100
sI102
S'    return locals()'
p101
sI103
S''
sI104
S'def presenters():'
p102
sI105
S'    return locals()'
p103
ssg89
S'()'
p104
sg91
S'<module>'
p105
sa(dp106
g68
S'/home/mhasoba/Documents/Code_n_script/web2py/gluon/globals.py'
p107
sg70
(dp108
S'self'
p109
S'undefined'
p110
sS'f'
S'<function user>'
p111
ssg76
I409
sg77
(dp112
I404
S"        self.flash = ''            # used by the default view layout"
p113
sI405
S'        self.meta = Storage()      # used by web2py_ajax.html'
p114
sI406
S'        self.menu = []             # used by the default view layout'
p115
sI407
S'        self.files = []            # used by web2py_ajax.html'
p116
sI408
S'        self._vars = None'
p117
sI409
S'        self._caller = lambda f: f()'
p118
sI410
S'        self._view_environment = None'
p119
sI411
S'        self._custom_commit = None'
p120
sI412
S'        self._custom_rollback = None'
p121
sI413
S"        self.generic_patterns = ['*']"
p122
ssg89
S'(f=<function user>)'
p123
sg91
S'<lambda>'
p124
sa(dp125
g68
S'/home/mhasoba/Documents/Code_n_script/web2py/applications/freesymp/controllers/default.py'
p126
sg70
(dp127
S'global auth'
p128
S'<gluon.tools.Auth object>'
p129
sS'form'
p130
g110
sS'builtindict'
p131
S"<type 'dict'>"
p132
ssg76
I40
sg77
(dp133
I35
S"        @auth.requires_membership('group name')"
p134
sI36
S"        @auth.requires_permission('read','table name',record_id)"
p135
sI37
S'    to decorate functions that need access control'
p136
sI38
S'    also notice there is http://..../[app]/appadmin/manage/auth to allow administrator to manage users'
p137
sI39
S'    """'
p138
sI40
S'    return dict(form=auth())'
p139
sI41
S''
sI42
S''
sI43
S'@cache.action()'
p140
sI44
S'def download():'
p141
ssg89
S'()'
p142
sg91
S'user'
p143
sa(dp144
g68
S'/home/mhasoba/Documents/Code_n_script/web2py/gluon/tools.py'
p145
sg70
(dp146
S'self'
p147
S'<gluon.tools.Auth object>'
p148
sS'args'
p149
S"['login']"
p150
sS'builtingetattr'
p151
S'<built-in function getattr>'
p152
ssg76
I1925
sg77
(dp153
I1920
S"                       'impersonate', 'not_authorized', 'confirm_registration',"
p154
sI1921
S"                       'bulk_register', 'manage_tokens', 'jwt'):"
p155
sI1922
S"            if len(request.args) >= 2 and args[0] == 'impersonate':"
p156
sI1923
S'                return getattr(self, args[0])(request.args[1])'
p157
sI1924
S'            else:'
p158
sI1925
S'                return getattr(self, args[0])()'
p159
sI1926
S"        elif args[0] == 'cas' and not self.settings.cas_provider:"
p160
sI1927
S"            if args(1) == self.settings.cas_actions['login']:"
p161
sI1928
S'                return self.cas_login(version=2)'
p162
sI1929
S"            elif args(1) == self.settings.cas_actions['validate']:"
p163
ssg89
S'(self=<gluon.tools.Auth object>)'
p164
sg91
S'__call__'
p165
sa(dp166
g68
S'/home/mhasoba/Documents/Code_n_script/web2py/gluon/tools.py'
p167
sg70
(dp168
S'table_user'
p169
S'<Table auth_user (id, first_name, last_name, ema...ration_key, reset_password_key, registration_id)>'
p170
sS'username'
p171
S"'email'"
p172
sS'entered_username'
p173
S"'s.pawar@imperial.ac.uk'"
p174
sS'user'
p175
S'None'
p176
ssg76
I2704
sg77
(dp177
I2699
S'                    entered_username = form.vars[username]'
p178
sI2700
S"                    if multi_login and '@' in entered_username:"
p179
sI2701
S"                        # if '@' in username check for email, not username"
p180
sI2702
S'                        user = table_user(email=entered_username)'
p181
sI2703
S'                    else:'
p182
sI2704
S'                        user = table_user(**{username: entered_username})'
p183
sI2705
S'                    if user:'
p184
sI2706
S'                        # user in db, check if registration pending or disabled'
p185
sI2707
S'                        temp_user = user'
p186
sI2708
S"                        if (temp_user.registration_key or '').startswith('pending'):"
p187
ssg89
S"(self=<gluon.tools.Auth object>, next='/freesymp/default/all_records', onvalidation=[], onaccept=[], log='User %(id)s Logged-in')"
p188
sg91
S'login'
p189
sa(dp190
g68
S'/home/mhasoba/Documents/Code_n_script/web2py/gluon/packages/dal/pydal/objects.py'
p191
sg70
(dp192
S'orderby_on_limitby'
p193
g110
sS').first'
p194
g110
sS'builtinFalse'
p195
S'False'
p196
ssg76
I566
sg77
(dp197
I561
S'            query = reduce(lambda a, b: a & b, ['
p198
sI562
S'                           self[k] == v for k, v in iteritems(kwargs)])'
p199
sI563
S'            return self._db(query).select(limitby=(0, 1),'
p200
sI564
S'                                          for_update=for_update,'
p201
sI565
S'                                          orderby=orderby,'
p202
sI566
S'                                          orderby_on_limitby=False).first()'
p203
sI567
S'        else:'
p204
sI568
S'            return None'
p205
sI569
S''
sI570
S'    def __setitem__(self, key, value):'
p206
ssg89
S"(self=<Table auth_user (id, first_name, last_name, ema...ration_key, reset_password_key, registration_id)>, key=<function <lambda>>, **kwargs={'email': 's.pawar@imperial.ac.uk'})"
p207
sg91
g165
sa(dp208
g68
S'/home/mhasoba/Documents/Code_n_script/web2py/gluon/packages/dal/pydal/objects.py'
p209
sg70
(dp210
S'self.query'
p211
S'<Query ("auth_user"."email" = \'s.pawar@imperial.ac.uk\')>'
p212
sS'adapter.select'
p213
S'<bound method SQLite.select of <pydal.adapters.sqlite.SQLite object>>'
p214
sS'fields'
p215
S'[<pydal.objects.Field object>, <pydal.objects.Field object>, <pydal.objects.Field object>, <pydal.objects.Field object>, <pydal.objects.Field object>, <pydal.objects.Field object>, <pydal.objects.Field object>, <pydal.objects.Field object>]'
p216
sS'adapter'
p217
S'<pydal.adapters.sqlite.SQLite object>'
p218
sS'attributes'
p219
S"{'for_update': False, 'limitby': (0, 1), 'orderby': None, 'orderby_on_limitby': False}"
p220
sS'self'
p221
S'<Set ("auth_user"."email" = \'s.pawar@imperial.ac.uk\')>'
p222
ssg76
I2211
sg77
(dp223
I2208
S"                                    attributes.get('orderby', None),"
p224
sI2209
S"                                    attributes.get('groupby', None))"
p225
sI2210
S'        fields = adapter.expand_all(fields, tablenames)'
p226
sI2211
S'        return adapter.select(self.query, fields, attributes)'
p227
sI2212
S''
sI2213
S'    def iterselect(self, *fields, **attributes):'
p228
sI2214
S'        adapter = self.db._adapter'
p229
sI2215
S'        tablenames = adapter.tables(self.query,'
p230
sI2206
S"                                    attributes.get('join', None),"
p231
sI2207
S"                                    attributes.get('left', None),"
p232
ssg89
S'(self=<Set ("auth_user"."email" = \'s.pawar@imperial.ac.uk\')>, *fields=[<pydal.objects.Field object>, <pydal.objects.Field object>, <pydal.objects.Field object>, <pydal.objects.Field object>, <pydal.objects.Field object>, <pydal.objects.Field object>, <pydal.objects.Field object>, <pydal.objects.Field object>], **attributes={\'for_update\': False, \'limitby\': (0, 1), \'orderby\': None, \'orderby_on_limitby\': False})'
p233
sg91
S'select'
p234
sa(dp235
g68
S'/home/mhasoba/Documents/Code_n_script/web2py/gluon/packages/dal/pydal/adapters/sqlite.py'
p236
sg70
(dp237
S'fields'
p238
S'[<pydal.objects.Field object>, <pydal.objects.Field object>, <pydal.objects.Field object>, <pydal.objects.Field object>, <pydal.objects.Field object>, <pydal.objects.Field object>, <pydal.objects.Field object>, <pydal.objects.Field object>]'
p239
sS'self'
p240
S'<pydal.adapters.sqlite.SQLite object>'
p241
sS').select'
p242
S'<bound method SQLite.select of <pydal.adapters.sqlite.SQLite object>>'
p243
sS'attributes'
p244
S"{'for_update': False, 'limitby': (0, 1), 'orderby': None, 'orderby_on_limitby': False}"
p245
sS'query'
p246
S'<Query ("auth_user"."email" = \'s.pawar@imperial.ac.uk\')>'
p247
sS'builtinsuper'
p248
S"<type 'super'>"
p249
sS'global SQLite'
p250
S"<class 'pydal.adapters.sqlite.SQLite'>"
p251
ssg76
I82
sg77
(dp252
I77
S"            self.execute('PRAGMA foreign_keys=ON;')"
p253
sI78
S''
sI79
S'    def select(self, query, fields, attributes):'
p254
sI80
S"        if attributes.get('for_update', False) and 'cache' not in attributes:"
p255
sI81
S"            self.execute('BEGIN IMMEDIATE TRANSACTION;')"
p256
sI82
S'        return super(SQLite, self).select(query, fields, attributes)'
p257
sI83
S''
sI84
S'    def delete(self, table, query):'
p258
sI85
S'        db = self.db'
p259
sI86
S'        deleted = [x[table._id.name] for x in db(query).select(table._id)]'
p260
ssg89
S'(self=<pydal.adapters.sqlite.SQLite object>, query=<Query ("auth_user"."email" = \'s.pawar@imperial.ac.uk\')>, fields=[<pydal.objects.Field object>, <pydal.objects.Field object>, <pydal.objects.Field object>, <pydal.objects.Field object>, <pydal.objects.Field object>, <pydal.objects.Field object>, <pydal.objects.Field object>, <pydal.objects.Field object>], attributes={\'for_update\': False, \'limitby\': (0, 1), \'orderby\': None, \'orderby_on_limitby\': False})'
p261
sg91
g234
sa(dp262
g68
S'/home/mhasoba/Documents/Code_n_script/web2py/gluon/packages/dal/pydal/adapters/base.py'
p263
sg70
(dp264
S'self._select_aux'
p265
S'<bound method SQLite._select_aux of <pydal.adapters.sqlite.SQLite object>>'
p266
sS'fields'
p267
S'[<pydal.objects.Field object>, <pydal.objects.Field object>, <pydal.objects.Field object>, <pydal.objects.Field object>, <pydal.objects.Field object>, <pydal.objects.Field object>, <pydal.objects.Field object>, <pydal.objects.Field object>]'
p268
sS'self'
p269
S'<pydal.adapters.sqlite.SQLite object>'
p270
sS'sql'
p271
S'\'SELECT "auth_user"."id", "auth_user"."first_name...il" = \\\'s.pawar@imperial.ac.uk\\\') LIMIT 1 OFFSET 0;\''
p272
sS'attributes'
p273
S"{'for_update': False, 'limitby': (0, 1), 'orderby': None, 'orderby_on_limitby': False}"
p274
sS'colnames'
p275
S"['auth_user.id', 'auth_user.first_name', 'auth_user.last_name', 'auth_user.email', 'auth_user.password', 'auth_user.registration_key', 'auth_user.reset_password_key', 'auth_user.registration_id']"
p276
ssg76
I762
sg77
(dp277
I757
S'        colnames, sql = self._select_wcols(query, fields, **attributes)'
p278
sI758
S"        cache = attributes.get('cache', None)"
p279
sI759
S"        if cache and attributes.get('cacheable', False):"
p280
sI760
S'            return self._cached_select('
p281
sI761
S'                cache, sql, fields, attributes, colnames)'
p282
sI762
S'        return self._select_aux(sql, fields, attributes, colnames)'
p283
sI763
S''
sI764
S'    def iterselect(self, query, fields, attributes):'
p284
sI765
S'        colnames, sql = self._select_wcols(query, fields, **attributes)'
p285
sI766
S"        cacheable = attributes.get('cacheable', False)"
p286
ssg89
S'(self=<pydal.adapters.sqlite.SQLite object>, query=<Query ("auth_user"."email" = \'s.pawar@imperial.ac.uk\')>, fields=[<pydal.objects.Field object>, <pydal.objects.Field object>, <pydal.objects.Field object>, <pydal.objects.Field object>, <pydal.objects.Field object>, <pydal.objects.Field object>, <pydal.objects.Field object>, <pydal.objects.Field object>], attributes={\'for_update\': False, \'limitby\': (0, 1), \'orderby\': None, \'orderby_on_limitby\': False})'
p287
sg91
g234
sa(dp288
g68
S'/home/mhasoba/Documents/Code_n_script/web2py/gluon/packages/dal/pydal/adapters/base.py'
p289
sg70
(dp290
S'self'
p291
S'<pydal.adapters.sqlite.SQLite object>'
p292
sS'rows'
p293
g110
sS'self._select_aux_execute'
p294
S'<bound method SQLite._select_aux_execute of <pydal.adapters.sqlite.SQLite object>>'
p295
sS'sql'
p296
S'\'SELECT "auth_user"."id", "auth_user"."first_name...il" = \\\'s.pawar@imperial.ac.uk\\\') LIMIT 1 OFFSET 0;\''
p297
ssg76
I718
sg77
(dp298
I713
S'        return self.cursor.fetchall()'
p299
sI714
S''
sI715
S'    def _select_aux(self, sql, fields, attributes, colnames):'
p300
sI716
S"        cache = attributes.get('cache', None)"
p301
sI717
S'        if not cache:'
p302
sI718
S'            rows = self._select_aux_execute(sql)'
p303
sI719
S'        else:'
p304
sI720
S'            if isinstance(cache, dict):'
p305
sI721
S"                cache_model = cache['model']"
p306
sI722
S"                time_expire = cache['expiration']"
p307
ssg89
S'(self=<pydal.adapters.sqlite.SQLite object>, sql=\'SELECT "auth_user"."id", "auth_user"."first_name...il" = \\\'s.pawar@imperial.ac.uk\\\') LIMIT 1 OFFSET 0;\', fields=[<pydal.objects.Field object>, <pydal.objects.Field object>, <pydal.objects.Field object>, <pydal.objects.Field object>, <pydal.objects.Field object>, <pydal.objects.Field object>, <pydal.objects.Field object>, <pydal.objects.Field object>], attributes={\'for_update\': False, \'limitby\': (0, 1), \'orderby\': None, \'orderby_on_limitby\': False}, colnames=[\'auth_user.id\', \'auth_user.first_name\', \'auth_user.last_name\', \'auth_user.email\', \'auth_user.password\', \'auth_user.registration_key\', \'auth_user.reset_password_key\', \'auth_user.registration_id\'])'
p308
sg91
S'_select_aux'
p309
sa(dp310
g68
S'/home/mhasoba/Documents/Code_n_script/web2py/gluon/packages/dal/pydal/adapters/base.py'
p311
sg70
(dp312
S'self'
p313
S'<pydal.adapters.sqlite.SQLite object>'
p314
sS'self.execute'
p315
S'<bound method SQLite.wrap of <pydal.adapters.sqlite.SQLite object>>'
p316
sS'sql'
p317
S'\'SELECT "auth_user"."id", "auth_user"."first_name...il" = \\\'s.pawar@imperial.ac.uk\\\') LIMIT 1 OFFSET 0;\''
p318
ssg76
I712
sg77
(dp319
I707
S''
sI708
S'    def nested_select(self, query, fields, attributes):'
p320
sI709
S'        return Select(self.db, query, fields, attributes)'
p321
sI710
S''
sI711
S'    def _select_aux_execute(self, sql):'
p322
sI712
S'        self.execute(sql)'
p323
sI713
S'        return self.cursor.fetchall()'
p324
sI714
S''
sI715
S'    def _select_aux(self, sql, fields, attributes, colnames):'
p325
sI716
S"        cache = attributes.get('cache', None)"
p326
ssg89
S'(self=<pydal.adapters.sqlite.SQLite object>, sql=\'SELECT "auth_user"."id", "auth_user"."first_name...il" = \\\'s.pawar@imperial.ac.uk\\\') LIMIT 1 OFFSET 0;\')'
p327
sg91
S'_select_aux_execute'
p328
sa(dp329
g68
S'/home/mhasoba/Documents/Code_n_script/web2py/gluon/packages/dal/pydal/adapters/__init__.py'
p330
sg70
(dp331
S'kwargs'
p332
g21
sS'args'
p333
S'(<pydal.adapters.sqlite.SQLite object>, \'SELECT "auth_user"."id", "auth_user"."first_name...il" = \\\'s.pawar@imperial.ac.uk\\\') LIMIT 1 OFFSET 0;\')'
p334
sS'f'
S'<function execute>'
p335
ssg76
I67
sg77
(dp336
I64
S'            if len(args) > 1:'
p337
sI65
S'                raise ValueError(args[1])'
p338
sI66
S"            raise RuntimeError('no connection available')"
p339
sI67
S'        return f(*args, **kwargs)'
p340
sI68
S'    return wrap'
p341
sI69
S''
sI70
S''
sI71
S'from .base import SQLAdapter, NoSQLAdapter'
p342
sI62
S'    def wrap(*args, **kwargs):'
p343
sI63
S'        if not args[0].connection:'
p344
ssg89
S'(*args=(<pydal.adapters.sqlite.SQLite object>, \'SELECT "auth_user"."id", "auth_user"."first_name...il" = \\\'s.pawar@imperial.ac.uk\\\') LIMIT 1 OFFSET 0;\'), **kwargs={})'
p345
sg91
S'wrap'
p346
sa(dp347
g68
S'/home/mhasoba/Documents/Code_n_script/web2py/gluon/packages/dal/pydal/adapters/base.py'
p348
sg70
(dp349
S'rv'
p350
g110
sS'self'
p351
S'<pydal.adapters.sqlite.SQLite object>'
p352
sS'args'
p353
S'(\'SELECT "auth_user"."id", "auth_user"."first_name...il" = \\\'s.pawar@imperial.ac.uk\\\') LIMIT 1 OFFSET 0;\',)'
p354
sS'self.cursor'
p355
S'<sqlite3.Cursor object>'
p356
sS'command'
p357
S'\'SELECT "auth_user"."id", "auth_user"."first_name...il" = \\\'s.pawar@imperial.ac.uk\\\') LIMIT 1 OFFSET 0;\''
p358
sS'self.cursor.execute'
p359
S'<built-in method execute of sqlite3.Cursor object>'
p360
sS'kwargs'
p361
g21
ssg76
I412
sg77
(dp362
I416
S''
sI407
S'    def execute(self, *args, **kwargs):'
p363
sI408
S'        command = self.filter_sql_command(args[0])'
p364
sI409
S'        handlers = self._build_handlers_for_execution()'
p365
sI410
S'        for handler in handlers:'
p366
sI411
S'            handler.before_execute(command)'
p367
sI412
S'        rv = self.cursor.execute(command, *args[1:], **kwargs)'
p368
sI413
S'        for handler in handlers:'
p369
sI414
S'            handler.after_execute(command)'
p370
sI415
S'        return rv'
p371
ssg89
S'(self=<pydal.adapters.sqlite.SQLite object>, *args=(\'SELECT "auth_user"."id", "auth_user"."first_name...il" = \\\'s.pawar@imperial.ac.uk\\\') LIMIT 1 OFFSET 0;\',), **kwargs={})'
p372
sg91
S'execute'
p373
sasS'pyver'
p374
S'Python 2.7.12: /usr/bin/python (prefix: /usr)'
p375
sS'session'
p376
g63
(S's\x98\x00\x00\x00<div><table><tr><td style="font-weight:bold;vertical-align:top;">flash</td><td style="vertical-align:top;">:</td><td><div></div></td></tr></table></div>'
tRp377
sS'etype'
p378
S"<class 'sqlite3.OperationalError'>"
p379
sS'date'
p380
S'Tue Aug 29 17:27:26 2017'
p381
sS'response'
p382
g63
(S's\xe9 \x00\x00<div><table><tr><td style="font-weight:bold;vertical-align:top;">body</td><td style="vertical-align:top;">:</td><td><div>&lt;cStringIO.StringO object at 0x7f3c4c7e8fb8&gt;</div></td></tr><tr><td style="font-weight:bold;vertical-align:top;">cookies</td><td style="vertical-align:top;">:</td><td><div><table><tr><td style="font-weight:bold;vertical-align:top;">session_id_freesymp</td><td style="vertical-align:top;">:</td><td><div>127.0.0.1-8bf876bd-ad20-458b-8ad5-c64617edca66<table><tr><td style="font-weight:bold;vertical-align:top;">comment</td><td style="vertical-align:top;">:</td><td><div></div></td></tr><tr><td style="font-weight:bold;vertical-align:top;">domain</td><td style="vertical-align:top;">:</td><td><div></div></td></tr><tr><td style="font-weight:bold;vertical-align:top;">expires</td><td style="vertical-align:top;">:</td><td><div></div></td></tr><tr><td style="font-weight:bold;vertical-align:top;">httponly</td><td style="vertical-align:top;">:</td><td><div></div></td></tr><tr><td style="font-weight:bold;vertical-align:top;">max-age</td><td style="vertical-align:top;">:</td><td><div></div></td></tr><tr><td style="font-weight:bold;vertical-align:top;">path</td><td style="vertical-align:top;">:</td><td><div>/</div></td></tr><tr><td style="font-weight:bold;vertical-align:top;">secure</td><td style="vertical-align:top;">:</td><td><div></div></td></tr><tr><td style="font-weight:bold;vertical-align:top;">version</td><td style="vertical-align:top;">:</td><td><div></div></td></tr></table></div></td></tr></table></div></td></tr><tr><td style="font-weight:bold;vertical-align:top;">delimiters</td><td style="vertical-align:top;">:</td><td><div><table><tr><td><div>{{</div></td></tr><tr><td><div>}}</div></td></tr></table></div></td></tr><tr><td style="font-weight:bold;vertical-align:top;">files</td><td style="vertical-align:top;">:</td><td><div><table></table></div></td></tr><tr><td style="font-weight:bold;vertical-align:top;">flash</td><td style="vertical-align:top;">:</td><td><div></div></td></tr><tr><td style="font-weight:bold;vertical-align:top;">form_label_separator</td><td style="vertical-align:top;">:</td><td><div></div></td></tr><tr><td style="font-weight:bold;vertical-align:top;">formstyle</td><td style="vertical-align:top;">:</td><td><div>bootstrap3_inline</div></td></tr><tr><td style="font-weight:bold;vertical-align:top;">generic_patterns</td><td style="vertical-align:top;">:</td><td><div><table><tr><td><div>*</div></td></tr></table></div></td></tr><tr><td style="font-weight:bold;vertical-align:top;">google_analytics_id</td><td style="vertical-align:top;">:</td><td><div>None</div></td></tr><tr><td style="font-weight:bold;vertical-align:top;">headers</td><td style="vertical-align:top;">:</td><td><div><table><tr><td style="font-weight:bold;vertical-align:top;">X-Powered-By</td><td style="vertical-align:top;">:</td><td><div>web2py</div></td></tr></table></div></td></tr><tr><td style="font-weight:bold;vertical-align:top;">menu</td><td style="vertical-align:top;">:</td><td><div><table><tr><td><div><table><tr><td><div>HOME</div></td></tr><tr><td><div>False</div></td></tr><tr><td><div>/freesymp/default/index</div></td></tr><tr><td><div><table></table></div></td></tr></table></div></td></tr><tr><td><div><table><tr><td><div>PROGRAM</div></td></tr><tr><td><div>False</div></td></tr><tr><td><div>None</div></td></tr><tr><td><div><table><tr><td><div><table><tr><td><div>Overall Program</div></td></tr><tr><td><div>False</div></td></tr><tr><td><div>program</div></td></tr></table></div></td></tr><tr><td><div><table><tr><td><div>Schedule of Presentations</div></td></tr><tr><td><div>False</div></td></tr><tr><td><div>schedule</div></td></tr></table></div></td></tr></table></div></td></tr></table></div></td></tr><tr><td><div><table><tr><td><div>FOR PRESENTERS</div></td></tr><tr><td><div>False</div></td></tr><tr><td><div>/freesymp/default/presenters</div></td></tr><tr><td><div><table></table></div></td></tr></table></div></td></tr><tr><td><div><table><tr><td><div>ORGANIZATION</div></td></tr><tr><td><div>False</div></td></tr><tr><td><div>#</div></td></tr><tr><td><div><table><tr><td><div><table><tr><td><div>Presenters</div></td></tr><tr><td><div>False</div></td></tr><tr><td><div>/freesymp/default/all_records</div></td></tr><tr><td><div>[]</div></td></tr></table></div></td></tr></table></div></td></tr></table></div></td></tr></table></div></td></tr><tr><td style="font-weight:bold;vertical-align:top;">meta</td><td style="vertical-align:top;">:</td><td><div><table><tr><td style="font-weight:bold;vertical-align:top;">author</td><td style="vertical-align:top;">:</td><td><div>Sofia Sal &lt;soflysb@gmail.com&gt;</div></td></tr><tr><td style="font-weight:bold;vertical-align:top;">description</td><td style="vertical-align:top;">:</td><td><div>FrEE Symposium website</div></td></tr><tr><td style="font-weight:bold;vertical-align:top;">keywords</td><td style="vertical-align:top;">:</td><td><div>Student led Ecology, Evolution, Conservation Symposium at Silwood Park, Imperial College London</div></td></tr></table></div></td></tr><tr><td style="font-weight:bold;vertical-align:top;">models_to_run</td><td style="vertical-align:top;">:</td><td><div><table><tr><td><div>^\\w+\\.py$</div></td></tr><tr><td><div>^default/\\w+\\.py$</div></td></tr><tr><td><div>^default/user/\\w+\\.py$</div></td></tr></table></div></td></tr><tr><td style="font-weight:bold;vertical-align:top;">postprocessing</td><td style="vertical-align:top;">:</td><td><div><table></table></div></td></tr><tr><td style="font-weight:bold;vertical-align:top;">session_client</td><td style="vertical-align:top;">:</td><td><div>127.0.0.1</div></td></tr><tr><td style="font-weight:bold;vertical-align:top;">session_cookie_compression_level</td><td style="vertical-align:top;">:</td><td><div>None</div></td></tr><tr><td style="font-weight:bold;vertical-align:top;">session_cookie_expires</td><td style="vertical-align:top;">:</td><td><div>None</div></td></tr><tr><td style="font-weight:bold;vertical-align:top;">session_data_name</td><td style="vertical-align:top;">:</td><td><div>session_data_freesymp</div></td></tr><tr><td style="font-weight:bold;vertical-align:top;">session_file</td><td style="vertical-align:top;">:</td><td><div>&lt;open file &#x27;/home/mhasoba/Documents/Code_n_script/web2py/applications/freesymp/sessions/0e4/023/127.0.0.1-8bf876bd-ad20-458b-8ad5-c64617edca66&#x27;, mode &#x27;rb+&#x27; at 0x7f3c4c608930&gt;</div></td></tr><tr><td style="font-weight:bold;vertical-align:top;">session_filename</td><td style="vertical-align:top;">:</td><td><div>/home/mhasoba/Documents/Code_n_script/web2py/applications/freesymp/sessions/127.0.0.1-8bf876bd-ad20-458b-8ad5-c64617edca66</div></td></tr><tr><td style="font-weight:bold;vertical-align:top;">session_hash</td><td style="vertical-align:top;">:</td><td><div>c257a21beafaa4cd92db45b2593e8bed</div></td></tr><tr><td style="font-weight:bold;vertical-align:top;">session_id</td><td style="vertical-align:top;">:</td><td><div>127.0.0.1-8bf876bd-ad20-458b-8ad5-c64617edca66</div></td></tr><tr><td style="font-weight:bold;vertical-align:top;">session_id_name</td><td style="vertical-align:top;">:</td><td><div>session_id_freesymp</div></td></tr><tr><td style="font-weight:bold;vertical-align:top;">session_locked</td><td style="vertical-align:top;">:</td><td><div>True</div></td></tr><tr><td style="font-weight:bold;vertical-align:top;">session_masterapp</td><td style="vertical-align:top;">:</td><td><div>freesymp</div></td></tr><tr><td style="font-weight:bold;vertical-align:top;">session_new</td><td style="vertical-align:top;">:</td><td><div>False</div></td></tr><tr><td style="font-weight:bold;vertical-align:top;">session_storage_type</td><td style="vertical-align:top;">:</td><td><div>file</div></td></tr><tr><td style="font-weight:bold;vertical-align:top;">status</td><td style="vertical-align:top;">:</td><td><div>200</div></td></tr><tr><td style="font-weight:bold;vertical-align:top;">subtitle</td><td style="vertical-align:top;">:</td><td><div><a style="color: white;">Frontiers in Ecology &amp; Evolution 5-7 September</a></div></td></tr><tr><td style="font-weight:bold;vertical-align:top;">title</td><td style="vertical-align:top;">:</td><td><div>FrEE Symposium 2017</div></td></tr><tr><td style="font-weight:bold;vertical-align:top;">view</td><td style="vertical-align:top;">:</td><td><div>default/user.html</div></td></tr></table></div>'
tRp383
sS'locals'
p384
(dp385
S'handlers'
p386
S'[<pydal.helpers.classes.TimingHandler object>]'
p387
sS'self'
p388
S'<pydal.adapters.sqlite.SQLite object>'
p389
sg48
S'(\'SELECT "auth_user"."id", "auth_user"."first_name...il" = \\\'s.pawar@imperial.ac.uk\\\') LIMIT 1 OFFSET 0;\',)'
p390
sS'handler'
p391
S'<pydal.helpers.classes.TimingHandler object>'
p392
sS'command'
p393
S'\'SELECT "auth_user"."id", "auth_user"."first_name...il" = \\\'s.pawar@imperial.ac.uk\\\') LIMIT 1 OFFSET 0;\''
p394
sS'kwargs'
p395
g21
sssS'traceback'
p396
S'Traceback (most recent call last):\n  File "/home/mhasoba/Documents/Code_n_script/web2py/gluon/restricted.py", line 219, in restricted\n    exec(ccode, environment)\n  File "/home/mhasoba/Documents/Code_n_script/web2py/applications/freesymp/controllers/default.py", line 107, in <module>\n  File "/home/mhasoba/Documents/Code_n_script/web2py/gluon/globals.py", line 409, in <lambda>\n    self._caller = lambda f: f()\n  File "/home/mhasoba/Documents/Code_n_script/web2py/applications/freesymp/controllers/default.py", line 40, in user\n    return dict(form=auth())\n  File "/home/mhasoba/Documents/Code_n_script/web2py/gluon/tools.py", line 1925, in __call__\n    return getattr(self, args[0])()\n  File "/home/mhasoba/Documents/Code_n_script/web2py/gluon/tools.py", line 2704, in login\n    user = table_user(**{username: entered_username})\n  File "/home/mhasoba/Documents/Code_n_script/web2py/gluon/packages/dal/pydal/objects.py", line 566, in __call__\n    orderby_on_limitby=False).first()\n  File "/home/mhasoba/Documents/Code_n_script/web2py/gluon/packages/dal/pydal/objects.py", line 2211, in select\n    return adapter.select(self.query, fields, attributes)\n  File "/home/mhasoba/Documents/Code_n_script/web2py/gluon/packages/dal/pydal/adapters/sqlite.py", line 82, in select\n    return super(SQLite, self).select(query, fields, attributes)\n  File "/home/mhasoba/Documents/Code_n_script/web2py/gluon/packages/dal/pydal/adapters/base.py", line 762, in select\n    return self._select_aux(sql, fields, attributes, colnames)\n  File "/home/mhasoba/Documents/Code_n_script/web2py/gluon/packages/dal/pydal/adapters/base.py", line 718, in _select_aux\n    rows = self._select_aux_execute(sql)\n  File "/home/mhasoba/Documents/Code_n_script/web2py/gluon/packages/dal/pydal/adapters/base.py", line 712, in _select_aux_execute\n    self.execute(sql)\n  File "/home/mhasoba/Documents/Code_n_script/web2py/gluon/packages/dal/pydal/adapters/__init__.py", line 67, in wrap\n    return f(*args, **kwargs)\n  File "/home/mhasoba/Documents/Code_n_script/web2py/gluon/packages/dal/pydal/adapters/base.py", line 412, in execute\n    rv = self.cursor.execute(command, *args[1:], **kwargs)\nOperationalError: no such table: auth_user\n'
p397
s.